target datalayout = "e-m:e-p270:32:32-p271:32:32-p272:64:64-i64:64-i128:128-f80:128-n8:16:32:64-S128"
target triple = "x86_64-pc-linux-gnu"

%struct.BackendGlobalData = type <{ ptr, ptr, i8, i8, i8, i8, i8, i8, i8, i8, i8, [3 x i8], i32, ptr, ptr, ptr, ptr, ptr, ptr, ptr, ptr, ptr, ptr, ptr, ptr, ptr, i32, %struct.jvmtiCapabilities, i8, [3 x i8], %struct.jvmtiEventCallbacks, ptr, ptr, ptr, ptr, ptr, ptr, ptr, i32, [4 x i8], ptr, i64, i32, [4 x i8], ptr, i32, i32, i8, i8, [6 x i8] }>
%struct.jvmtiCapabilities = type { i64, i64 }
%struct.jvmtiEventCallbacks = type { ptr, ptr, ptr, ptr, ptr, ptr, ptr, ptr, ptr, ptr, ptr, ptr, ptr, ptr, ptr, ptr, ptr, ptr, ptr, ptr, ptr, ptr, ptr, ptr, ptr, ptr, ptr, ptr, ptr, ptr, ptr, ptr, ptr, ptr, ptr, ptr, ptr, ptr, ptr }
%struct.JNIInvokeInterface_ = type { ptr, ptr, ptr, ptr, ptr, ptr, ptr, ptr }

@gdata = hidden global ptr null, align 8
@stderr = external global ptr, align 8
@.str = private unnamed_addr constant [17 x i8] c"JDWP exit error \00", align 1
@.str.1 = private unnamed_addr constant [2 x i8] c"\0A\00", align 1
@.str.2 = private unnamed_addr constant [19 x i8] c"%s(%d): %s [%s:%d]\00", align 1
@.str.4 = private unnamed_addr constant [47 x i8] c"src/jdk.jdwp.agent/share/native/libjdwp/util.c\00", align 1
@.str.18 = private unnamed_addr constant [6 x i8] c"ERROR\00", align 1
@.str.20 = private unnamed_addr constant [1 x i8] zeroinitializer, align 1
@.str.71 = private unnamed_addr constant [71 x i8] c"JDWP Unable to get JNI 1.2 environment, jvm->GetEnv() return code = %d\00", align 1

; Function Attrs: nounwind uwtable
define hidden ptr @getEnv() #0 {
  %1 = alloca ptr, align 8
  %2 = alloca i32, align 4
  store ptr null, ptr %1, align 8
  %3 = load ptr, ptr @gdata, align 8
  %4 = getelementptr inbounds %struct.BackendGlobalData, ptr %3, i32 0, i32 1
  %5 = load ptr, ptr %4, align 8
  %6 = load ptr, ptr %5, align 8
  %7 = getelementptr inbounds %struct.JNIInvokeInterface_, ptr %6, i32 0, i32 6
  %8 = load ptr, ptr %7, align 8
  %9 = load ptr, ptr @gdata, align 8
  %10 = getelementptr inbounds %struct.BackendGlobalData, ptr %9, i32 0, i32 1
  %11 = load ptr, ptr %10, align 8
  %12 = call i32 %8(ptr noundef %11, ptr noundef %1, i32 noundef 65538)
  store i32 %12, ptr %2, align 4
  %13 = load i32, ptr %2, align 4
  %14 = icmp ne i32 %13, 0
  br i1 %14, label %15, label %28

15:                                               ; preds = %0
  %16 = load ptr, ptr @gdata, align 8
  %17 = getelementptr inbounds %struct.BackendGlobalData, ptr %16, i32 0, i32 38
  %18 = load i32, ptr %17, align 8
  %19 = and i32 %18, 128
  %20 = icmp ne i32 %19, 0
  br i1 %20, label %21, label %23

21:                                               ; preds = %15
  call void @log_message_begin(ptr noundef @.str.18, ptr noundef @.str.4, i32 noundef 838)
  %22 = load i32, ptr %2, align 4
  call void (ptr, ...) @log_message_end(ptr noundef @.str.71, i32 noundef %22)
  br label %24

23:                                               ; preds = %15
  br label %24

24:                                               ; preds = %23, %21
  %25 = load i32, ptr %2, align 4
  call void (ptr, ...) @error_message(ptr noundef @.str.71, i32 noundef %25)
  %26 = load ptr, ptr @stderr, align 8
  %27 = call ptr @jvmtiErrorText(i32 noundef 183)
  call void (ptr, ptr, ptr, ptr, ...) @print_message(ptr noundef %26, ptr noundef @.str, ptr noundef @.str.1, ptr noundef @.str.2, ptr noundef %27, i32 noundef 183, ptr noundef @.str.20, ptr noundef @.str.4, i32 noundef 839)
  call void @debugInit_exit(i32 noundef 183, ptr noundef null)
  br label %28

28:                                               ; preds = %24, %0
  %29 = load ptr, ptr %1, align 8
  ret ptr %29
}