; Function Attrs: nounwind uwtable
define hidden ptr @getEnv() local_unnamed_addr #0 {
  %1 = alloca ptr, align 8
  store ptr null, ptr %1, align 8
  %2 = load ptr, ptr @gdata, align 8
  %3 = getelementptr inbounds i8, ptr %2, i64 8
  %4 = load ptr, ptr %3, align 8
  %5 = load ptr, ptr %4, align 8
  %6 = getelementptr inbounds i8, ptr %5, i64 48
  %7 = load ptr, ptr %6, align 8
  %8 = call i32 %7(ptr noundef nonnull %4, ptr noundef nonnull %1, i32 noundef 65538) #14
  %.not = icmp eq i32 %8, 0
  br i1 %.not, label %18, label %9

9:                                                ; preds = %0
  %10 = load ptr, ptr @gdata, align 8
  %11 = getelementptr inbounds i8, ptr %10, i64 528
  %12 = load i32, ptr %11, align 8
  %13 = and i32 %12, 128
  %.not3 = icmp eq i32 %13, 0
  br i1 %.not3, label %15, label %14

14:                                               ; preds = %9
  call void @log_message_begin(ptr noundef nonnull @.str.18, ptr noundef nonnull @.str.4, i32 noundef 838) #14
  call void (ptr, ...) @log_message_end(ptr noundef nonnull @.str.71, i32 noundef %8) #14
  br label %15

15:                                               ; preds = %9, %14
  call void (ptr, ...) @error_message(ptr noundef nonnull @.str.71, i32 noundef %8) #14
  %16 = load ptr, ptr @stderr, align 8
  %17 = call ptr @jvmtiErrorText(i32 noundef 183) #14
  call void (ptr, ptr, ptr, ptr, ...) @print_message(ptr noundef %16, ptr noundef nonnull @.str, ptr noundef nonnull @.str.1, ptr noundef nonnull @.str.2, ptr noundef %17, i32 noundef 183, ptr noundef nonnull @.str.20, ptr noundef nonnull @.str.4, i32 noundef 839) #14
  call void @debugInit_exit(i32 noundef 183, ptr noundef null) #14
  br label %18

18:                                               ; preds = %15, %0
  %19 = load ptr, ptr %1, align 8
  ret ptr %19
}